target datalayout = "e-m:e-p270:32:32-p271:32:32-p272:64:64-i64:64-i128:128-f80:128-n8:16:32:64-S128"
target triple = "x86_64-pc-linux-gnu"

@.str.11 = private unnamed_addr constant [37 x i8] c"../openssl/test/rsa_sp800_56b_test.c\00", align 1
@.str.21 = private unnamed_addr constant [13 x i8] c"p = BN_new()\00", align 1
@.str.44 = private unnamed_addr constant [13 x i8] c"q = BN_new()\00", align 1
@.str.120 = private unnamed_addr constant [15 x i8] c"tmp = BN_new()\00", align 1
@.str.121 = private unnamed_addr constant [18 x i8] c"BN_set_word(p, 1)\00", align 1
@.str.122 = private unnamed_addr constant [20 x i8] c"BN_set_word(q, 1+2)\00", align 1
@.str.123 = private unnamed_addr constant [44 x i8] c"ossl_rsa_check_pminusq_diff(tmp, p, q, 202)\00", align 1
@.str.124 = private unnamed_addr constant [20 x i8] c"BN_set_word(q, 1+3)\00", align 1
@.str.125 = private unnamed_addr constant [20 x i8] c"BN_set_word(p, 1+3)\00", align 1
@.str.126 = private unnamed_addr constant [18 x i8] c"BN_set_word(q, 1)\00", align 1

; Function Attrs: nounwind uwtable
define internal i32 @test_pq_diff() #0 {
  %1 = alloca i32, align 4
  %2 = alloca ptr, align 8
  %3 = alloca ptr, align 8
  %4 = alloca ptr, align 8
  call void @llvm.lifetime.start.p0(i64 4, ptr %1) #3
  store i32 0, ptr %1, align 4, !tbaa !4
  call void @llvm.lifetime.start.p0(i64 8, ptr %2) #3
  store ptr null, ptr %2, align 8, !tbaa !8
  call void @llvm.lifetime.start.p0(i64 8, ptr %3) #3
  store ptr null, ptr %3, align 8, !tbaa !8
  call void @llvm.lifetime.start.p0(i64 8, ptr %4) #3
  store ptr null, ptr %4, align 8, !tbaa !8
  %5 = call ptr @BN_new()
  store ptr %5, ptr %2, align 8, !tbaa !8
  %6 = call i32 @test_ptr(ptr noundef @.str.11, i32 noundef 391, ptr noundef @.str.120, ptr noundef %5)
  %7 = icmp ne i32 %6, 0
  br i1 %7, label %8, label %78

8:                                                ; preds = %0
  %9 = call ptr @BN_new()
  store ptr %9, ptr %3, align 8, !tbaa !8
  %10 = call i32 @test_ptr(ptr noundef @.str.11, i32 noundef 392, ptr noundef @.str.21, ptr noundef %9)
  %11 = icmp ne i32 %10, 0
  br i1 %11, label %12, label %78

12:                                               ; preds = %8
  %13 = call ptr @BN_new()
  store ptr %13, ptr %4, align 8, !tbaa !8
  %14 = call i32 @test_ptr(ptr noundef @.str.11, i32 noundef 393, ptr noundef @.str.44, ptr noundef %13)
  %15 = icmp ne i32 %14, 0
  br i1 %15, label %16, label %78

16:                                               ; preds = %12
  %17 = load ptr, ptr %3, align 8, !tbaa !8
  %18 = call i32 @BN_set_word(ptr noundef %17, i64 noundef 1)
  %19 = icmp ne i32 %18, 0
  %20 = zext i1 %19 to i32
  %21 = call i32 @test_true(ptr noundef @.str.11, i32 noundef 395, ptr noundef @.str.121, i32 noundef %20)
  %22 = icmp ne i32 %21, 0
  br i1 %22, label %23, label %78

23:                                               ; preds = %16
  %24 = load ptr, ptr %4, align 8, !tbaa !8
  %25 = call i32 @BN_set_word(ptr noundef %24, i64 noundef 3)
  %26 = icmp ne i32 %25, 0
  %27 = zext i1 %26 to i32
  %28 = call i32 @test_true(ptr noundef @.str.11, i32 noundef 396, ptr noundef @.str.122, i32 noundef %27)
  %29 = icmp ne i32 %28, 0
  br i1 %29, label %30, label %78

30:                                               ; preds = %23
  %31 = load ptr, ptr %2, align 8, !tbaa !8
  %32 = load ptr, ptr %3, align 8, !tbaa !8
  %33 = load ptr, ptr %4, align 8, !tbaa !8
  %34 = call i32 @ossl_rsa_check_pminusq_diff(ptr noundef %31, ptr noundef %32, ptr noundef %33, i32 noundef 202)
  %35 = icmp ne i32 %34, 0
  %36 = zext i1 %35 to i32
  %37 = call i32 @test_false(ptr noundef @.str.11, i32 noundef 397, ptr noundef @.str.123, i32 noundef %36)
  %38 = icmp ne i32 %37, 0
  br i1 %38, label %39, label %78

39:                                               ; preds = %30
  %40 = load ptr, ptr %4, align 8, !tbaa !8
  %41 = call i32 @BN_set_word(ptr noundef %40, i64 noundef 4)
  %42 = icmp ne i32 %41, 0
  %43 = zext i1 %42 to i32
  %44 = call i32 @test_true(ptr noundef @.str.11, i32 noundef 399, ptr noundef @.str.124, i32 noundef %43)
  %45 = icmp ne i32 %44, 0
  br i1 %45, label %46, label %78

46:                                               ; preds = %39
  %47 = load ptr, ptr %2, align 8, !tbaa !8
  %48 = load ptr, ptr %3, align 8, !tbaa !8
  %49 = load ptr, ptr %4, align 8, !tbaa !8
  %50 = call i32 @ossl_rsa_check_pminusq_diff(ptr noundef %47, ptr noundef %48, ptr noundef %49, i32 noundef 202)
  %51 = icmp ne i32 %50, 0
  %52 = zext i1 %51 to i32
  %53 = call i32 @test_true(ptr noundef @.str.11, i32 noundef 400, ptr noundef @.str.123, i32 noundef %52)
  %54 = icmp ne i32 %53, 0
  br i1 %54, label %55, label %78

55:                                               ; preds = %46
  %56 = load ptr, ptr %3, align 8, !tbaa !8
  %57 = call i32 @BN_set_word(ptr noundef %56, i64 noundef 4)
  %58 = icmp ne i32 %57, 0
  %59 = zext i1 %58 to i32
  %60 = call i32 @test_true(ptr noundef @.str.11, i32 noundef 401, ptr noundef @.str.125, i32 noundef %59)
  %61 = icmp ne i32 %60, 0
  br i1 %61, label %62, label %78

62:                                               ; preds = %55
  %63 = load ptr, ptr %4, align 8, !tbaa !8
  %64 = call i32 @BN_set_word(ptr noundef %63, i64 noundef 1)
  %65 = icmp ne i32 %64, 0
  %66 = zext i1 %65 to i32
  %67 = call i32 @test_true(ptr noundef @.str.11, i32 noundef 402, ptr noundef @.str.126, i32 noundef %66)
  %68 = icmp ne i32 %67, 0
  br i1 %68, label %69, label %78

69:                                               ; preds = %62
  %70 = load ptr, ptr %2, align 8, !tbaa !8
  %71 = load ptr, ptr %3, align 8, !tbaa !8
  %72 = load ptr, ptr %4, align 8, !tbaa !8
  %73 = call i32 @ossl_rsa_check_pminusq_diff(ptr noundef %70, ptr noundef %71, ptr noundef %72, i32 noundef 202)
  %74 = icmp ne i32 %73, 0
  %75 = zext i1 %74 to i32
  %76 = call i32 @test_true(ptr noundef @.str.11, i32 noundef 403, ptr noundef @.str.123, i32 noundef %75)
  %77 = icmp ne i32 %76, 0
  br label %78

78:                                               ; preds = %69, %62, %55, %46, %39, %30, %23, %16, %12, %8, %0
  %79 = phi i1 [ false, %62 ], [ false, %55 ], [ false, %46 ], [ false, %39 ], [ false, %30 ], [ false, %23 ], [ false, %16 ], [ false, %12 ], [ false, %8 ], [ false, %0 ], [ %77, %69 ]
  %80 = zext i1 %79 to i32
  store i32 %80, ptr %1, align 4, !tbaa !4
  %81 = load ptr, ptr %3, align 8, !tbaa !8
  call void @BN_free(ptr noundef %81)
  %82 = load ptr, ptr %4, align 8, !tbaa !8
  call void @BN_free(ptr noundef %82)
  %83 = load ptr, ptr %2, align 8, !tbaa !8
  call void @BN_free(ptr noundef %83)
  %84 = load i32, ptr %1, align 4, !tbaa !4
  call void @llvm.lifetime.end.p0(i64 8, ptr %4) #3
  call void @llvm.lifetime.end.p0(i64 8, ptr %3) #3
  call void @llvm.lifetime.end.p0(i64 8, ptr %2) #3
  call void @llvm.lifetime.end.p0(i64 4, ptr %1) #3
  ret i32 %84
}