; Function Attrs: nounwind uwtable
define internal range(i32 0, 2) i32 @test_pq_diff() #0 {
  %1 = tail call ptr @BN_new() #2
  %2 = tail call i32 @test_ptr(ptr noundef nonnull @.str.11, i32 noundef 391, ptr noundef nonnull @.str.120, ptr noundef %1) #2
  %.not = icmp eq i32 %2, 0
  br i1 %.not, label %51, label %3

3:                                                ; preds = %0
  %4 = tail call ptr @BN_new() #2
  %5 = tail call i32 @test_ptr(ptr noundef nonnull @.str.11, i32 noundef 392, ptr noundef nonnull @.str.21, ptr noundef %4) #2
  %.not18 = icmp eq i32 %5, 0
  br i1 %.not18, label %51, label %6

6:                                                ; preds = %3
  %7 = tail call ptr @BN_new() #2
  %8 = tail call i32 @test_ptr(ptr noundef nonnull @.str.11, i32 noundef 393, ptr noundef nonnull @.str.44, ptr noundef %7) #2
  %.not19 = icmp eq i32 %8, 0
  br i1 %.not19, label %51, label %9

9:                                                ; preds = %6
  %10 = tail call i32 @BN_set_word(ptr noundef %4, i64 noundef 1) #2
  %11 = icmp ne i32 %10, 0
  %12 = zext i1 %11 to i32
  %13 = tail call i32 @test_true(ptr noundef nonnull @.str.11, i32 noundef 395, ptr noundef nonnull @.str.121, i32 noundef %12) #2
  %.not20 = icmp eq i32 %13, 0
  br i1 %.not20, label %51, label %14

14:                                               ; preds = %9
  %15 = tail call i32 @BN_set_word(ptr noundef %7, i64 noundef 3) #2
  %16 = icmp ne i32 %15, 0
  %17 = zext i1 %16 to i32
  %18 = tail call i32 @test_true(ptr noundef nonnull @.str.11, i32 noundef 396, ptr noundef nonnull @.str.122, i32 noundef %17) #2
  %.not21 = icmp eq i32 %18, 0
  br i1 %.not21, label %51, label %19

19:                                               ; preds = %14
  %20 = tail call i32 @ossl_rsa_check_pminusq_diff(ptr noundef %1, ptr noundef %4, ptr noundef %7, i32 noundef 202) #2
  %21 = icmp ne i32 %20, 0
  %22 = zext i1 %21 to i32
  %23 = tail call i32 @test_false(ptr noundef nonnull @.str.11, i32 noundef 397, ptr noundef nonnull @.str.123, i32 noundef %22) #2
  %.not22 = icmp eq i32 %23, 0
  br i1 %.not22, label %51, label %24

24:                                               ; preds = %19
  %25 = tail call i32 @BN_set_word(ptr noundef %7, i64 noundef 4) #2
  %26 = icmp ne i32 %25, 0
  %27 = zext i1 %26 to i32
  %28 = tail call i32 @test_true(ptr noundef nonnull @.str.11, i32 noundef 399, ptr noundef nonnull @.str.124, i32 noundef %27) #2
  %.not23 = icmp eq i32 %28, 0
  br i1 %.not23, label %51, label %29

29:                                               ; preds = %24
  %30 = tail call i32 @ossl_rsa_check_pminusq_diff(ptr noundef %1, ptr noundef %4, ptr noundef %7, i32 noundef 202) #2
  %31 = icmp ne i32 %30, 0
  %32 = zext i1 %31 to i32
  %33 = tail call i32 @test_true(ptr noundef nonnull @.str.11, i32 noundef 400, ptr noundef nonnull @.str.123, i32 noundef %32) #2
  %.not24 = icmp eq i32 %33, 0
  br i1 %.not24, label %51, label %34

34:                                               ; preds = %29
  %35 = tail call i32 @BN_set_word(ptr noundef %4, i64 noundef 4) #2
  %36 = icmp ne i32 %35, 0
  %37 = zext i1 %36 to i32
  %38 = tail call i32 @test_true(ptr noundef nonnull @.str.11, i32 noundef 401, ptr noundef nonnull @.str.125, i32 noundef %37) #2
  %.not25 = icmp eq i32 %38, 0
  br i1 %.not25, label %51, label %39

39:                                               ; preds = %34
  %40 = tail call i32 @BN_set_word(ptr noundef %7, i64 noundef 1) #2
  %41 = icmp ne i32 %40, 0
  %42 = zext i1 %41 to i32
  %43 = tail call i32 @test_true(ptr noundef nonnull @.str.11, i32 noundef 402, ptr noundef nonnull @.str.126, i32 noundef %42) #2
  %.not26 = icmp eq i32 %43, 0
  br i1 %.not26, label %51, label %44

44:                                               ; preds = %39
  %45 = tail call i32 @ossl_rsa_check_pminusq_diff(ptr noundef %1, ptr noundef %4, ptr noundef %7, i32 noundef 202) #2
  %46 = icmp ne i32 %45, 0
  %47 = zext i1 %46 to i32
  %48 = tail call i32 @test_true(ptr noundef nonnull @.str.11, i32 noundef 403, ptr noundef nonnull @.str.123, i32 noundef %47) #2
  %49 = icmp ne i32 %48, 0
  %50 = zext i1 %49 to i32
  br label %51

51:                                               ; preds = %44, %39, %34, %29, %24, %19, %14, %9, %6, %3, %0
  %.017 = phi ptr [ %4, %44 ], [ %4, %39 ], [ %4, %34 ], [ %4, %29 ], [ %4, %24 ], [ %4, %19 ], [ %4, %14 ], [ %4, %9 ], [ %4, %6 ], [ %4, %3 ], [ null, %0 ]
  %.0 = phi ptr [ %7, %44 ], [ %7, %39 ], [ %7, %34 ], [ %7, %29 ], [ %7, %24 ], [ %7, %19 ], [ %7, %14 ], [ %7, %9 ], [ %7, %6 ], [ null, %3 ], [ null, %0 ]
  %52 = phi i32 [ %50, %44 ], [ 0, %39 ], [ 0, %34 ], [ 0, %29 ], [ 0, %24 ], [ 0, %19 ], [ 0, %14 ], [ 0, %9 ], [ 0, %6 ], [ 0, %3 ], [ 0, %0 ]
  tail call void @BN_free(ptr noundef %.017) #2
  tail call void @BN_free(ptr noundef %.0) #2
  tail call void @BN_free(ptr noundef %1) #2
  ret i32 %52
}